target datalayout = "e-m:e-p270:32:32-p271:32:32-p272:64:64-i64:64-i128:128-f80:128-n8:16:32:64-S128"
target triple = "x86_64-pc-linux-gnu"

%struct.hwloc_infos_s = type { ptr, i32, i32 }
%struct.hwloc_obj = type { i32, ptr, i32, ptr, i64, ptr, i32, i32, ptr, ptr, ptr, i32, ptr, ptr, i32, ptr, ptr, ptr, i32, i32, ptr, i32, ptr, i32, ptr, ptr, ptr, ptr, ptr, %struct.hwloc_infos_s, ptr, i64 }

; Function Attrs: nounwind uwtable
define internal void @fixup_sets(ptr noundef %0) #0 {
  %2 = alloca ptr, align 8
  %3 = alloca i32, align 4
  %4 = alloca ptr, align 8
  store ptr %0, ptr %2, align 8, !tbaa !37
  call void @llvm.lifetime.start.p0(i64 4, ptr %3) #14
  call void @llvm.lifetime.start.p0(i64 8, ptr %4) #14
  %5 = load ptr, ptr %2, align 8, !tbaa !37
  %6 = getelementptr inbounds nuw %struct.hwloc_obj, ptr %5, i32 0, i32 16
  %7 = load ptr, ptr %6, align 8, !tbaa !130
  store ptr %7, ptr %4, align 8, !tbaa !37
  store i32 0, ptr %3, align 4, !tbaa !33
  br label %8

8:                                                ; preds = %112, %1
  br label %9

9:                                                ; preds = %99, %8
  %10 = load ptr, ptr %4, align 8, !tbaa !37
  %11 = icmp ne ptr %10, null
  br i1 %11, label %12, label %104

12:                                               ; preds = %9
  %13 = load ptr, ptr %4, align 8, !tbaa !37
  %14 = getelementptr inbounds nuw %struct.hwloc_obj, ptr %13, i32 0, i32 25
  %15 = load ptr, ptr %14, align 8, !tbaa !39
  %16 = load ptr, ptr %4, align 8, !tbaa !37
  %17 = getelementptr inbounds nuw %struct.hwloc_obj, ptr %16, i32 0, i32 25
  %18 = load ptr, ptr %17, align 8, !tbaa !39
  %19 = load ptr, ptr %2, align 8, !tbaa !37
  %20 = getelementptr inbounds nuw %struct.hwloc_obj, ptr %19, i32 0, i32 25
  %21 = load ptr, ptr %20, align 8, !tbaa !39
  %22 = call i32 @hwloc_bitmap_and(ptr noundef %15, ptr noundef %18, ptr noundef %21)
  %23 = load ptr, ptr %4, align 8, !tbaa !37
  %24 = getelementptr inbounds nuw %struct.hwloc_obj, ptr %23, i32 0, i32 27
  %25 = load ptr, ptr %24, align 8, !tbaa !76
  %26 = load ptr, ptr %4, align 8, !tbaa !37
  %27 = getelementptr inbounds nuw %struct.hwloc_obj, ptr %26, i32 0, i32 27
  %28 = load ptr, ptr %27, align 8, !tbaa !76
  %29 = load ptr, ptr %2, align 8, !tbaa !37
  %30 = getelementptr inbounds nuw %struct.hwloc_obj, ptr %29, i32 0, i32 27
  %31 = load ptr, ptr %30, align 8, !tbaa !76
  %32 = call i32 @hwloc_bitmap_and(ptr noundef %25, ptr noundef %28, ptr noundef %31)
  %33 = load ptr, ptr %4, align 8, !tbaa !37
  %34 = getelementptr inbounds nuw %struct.hwloc_obj, ptr %33, i32 0, i32 26
  %35 = load ptr, ptr %34, align 8, !tbaa !53
  %36 = icmp ne ptr %35, null
  br i1 %36, label %37, label %48

37:                                               ; preds = %12
  %38 = load ptr, ptr %4, align 8, !tbaa !37
  %39 = getelementptr inbounds nuw %struct.hwloc_obj, ptr %38, i32 0, i32 26
  %40 = load ptr, ptr %39, align 8, !tbaa !53
  %41 = load ptr, ptr %4, align 8, !tbaa !37
  %42 = getelementptr inbounds nuw %struct.hwloc_obj, ptr %41, i32 0, i32 26
  %43 = load ptr, ptr %42, align 8, !tbaa !53
  %44 = load ptr, ptr %2, align 8, !tbaa !37
  %45 = getelementptr inbounds nuw %struct.hwloc_obj, ptr %44, i32 0, i32 26
  %46 = load ptr, ptr %45, align 8, !tbaa !53
  %47 = call i32 @hwloc_bitmap_and(ptr noundef %40, ptr noundef %43, ptr noundef %46)
  br label %55

48:                                               ; preds = %12
  %49 = load ptr, ptr %4, align 8, !tbaa !37
  %50 = getelementptr inbounds nuw %struct.hwloc_obj, ptr %49, i32 0, i32 25
  %51 = load ptr, ptr %50, align 8, !tbaa !39
  %52 = call noalias ptr @hwloc_bitmap_dup(ptr noundef %51)
  %53 = load ptr, ptr %4, align 8, !tbaa !37
  %54 = getelementptr inbounds nuw %struct.hwloc_obj, ptr %53, i32 0, i32 26
  store ptr %52, ptr %54, align 8, !tbaa !53
  br label %55

55:                                               ; preds = %48, %37
  %56 = load ptr, ptr %4, align 8, !tbaa !37
  %57 = getelementptr inbounds nuw %struct.hwloc_obj, ptr %56, i32 0, i32 28
  %58 = load ptr, ptr %57, align 8, !tbaa !77
  %59 = icmp ne ptr %58, null
  br i1 %59, label %60, label %71

60:                                               ; preds = %55
  %61 = load ptr, ptr %4, align 8, !tbaa !37
  %62 = getelementptr inbounds nuw %struct.hwloc_obj, ptr %61, i32 0, i32 28
  %63 = load ptr, ptr %62, align 8, !tbaa !77
  %64 = load ptr, ptr %4, align 8, !tbaa !37
  %65 = getelementptr inbounds nuw %struct.hwloc_obj, ptr %64, i32 0, i32 28
  %66 = load ptr, ptr %65, align 8, !tbaa !77
  %67 = load ptr, ptr %2, align 8, !tbaa !37
  %68 = getelementptr inbounds nuw %struct.hwloc_obj, ptr %67, i32 0, i32 28
  %69 = load ptr, ptr %68, align 8, !tbaa !77
  %70 = call i32 @hwloc_bitmap_and(ptr noundef %63, ptr noundef %66, ptr noundef %69)
  br label %78

71:                                               ; preds = %55
  %72 = load ptr, ptr %4, align 8, !tbaa !37
  %73 = getelementptr inbounds nuw %struct.hwloc_obj, ptr %72, i32 0, i32 27
  %74 = load ptr, ptr %73, align 8, !tbaa !76
  %75 = call noalias ptr @hwloc_bitmap_dup(ptr noundef %74)
  %76 = load ptr, ptr %4, align 8, !tbaa !37
  %77 = getelementptr inbounds nuw %struct.hwloc_obj, ptr %76, i32 0, i32 28
  store ptr %75, ptr %77, align 8, !tbaa !77
  br label %78

78:                                               ; preds = %71, %60
  %79 = load ptr, ptr %4, align 8, !tbaa !37
  %80 = getelementptr inbounds nuw %struct.hwloc_obj, ptr %79, i32 0, i32 0
  %81 = load i32, ptr %80, align 8, !tbaa !46
  %82 = call i32 @hwloc_obj_type_is_memory(i32 noundef %81)
  %83 = icmp ne i32 %82, 0
  br i1 %83, label %84, label %99

84:                                               ; preds = %78
  %85 = load ptr, ptr %4, align 8, !tbaa !37
  %86 = getelementptr inbounds nuw %struct.hwloc_obj, ptr %85, i32 0, i32 25
  %87 = load ptr, ptr %86, align 8, !tbaa !39
  %88 = load ptr, ptr %2, align 8, !tbaa !37
  %89 = getelementptr inbounds nuw %struct.hwloc_obj, ptr %88, i32 0, i32 25
  %90 = load ptr, ptr %89, align 8, !tbaa !39
  %91 = call i32 @hwloc_bitmap_copy(ptr noundef %87, ptr noundef %90)
  %92 = load ptr, ptr %4, align 8, !tbaa !37
  %93 = getelementptr inbounds nuw %struct.hwloc_obj, ptr %92, i32 0, i32 26
  %94 = load ptr, ptr %93, align 8, !tbaa !53
  %95 = load ptr, ptr %2, align 8, !tbaa !37
  %96 = getelementptr inbounds nuw %struct.hwloc_obj, ptr %95, i32 0, i32 26
  %97 = load ptr, ptr %96, align 8, !tbaa !53
  %98 = call i32 @hwloc_bitmap_copy(ptr noundef %94, ptr noundef %97)
  br label %99

99:                                               ; preds = %84, %78
  %100 = load ptr, ptr %4, align 8, !tbaa !37
  call void @fixup_sets(ptr noundef %100)
  %101 = load ptr, ptr %4, align 8, !tbaa !37
  %102 = getelementptr inbounds nuw %struct.hwloc_obj, ptr %101, i32 0, i32 12
  %103 = load ptr, ptr %102, align 8, !tbaa !82
  store ptr %103, ptr %4, align 8, !tbaa !37
  br label %9, !llvm.loop !259

104:                                              ; preds = %9
  %105 = load i32, ptr %3, align 4, !tbaa !33
  %106 = icmp ne i32 %105, 0
  br i1 %106, label %116, label %107

107:                                              ; preds = %104
  %108 = load ptr, ptr %2, align 8, !tbaa !37
  %109 = getelementptr inbounds nuw %struct.hwloc_obj, ptr %108, i32 0, i32 20
  %110 = load ptr, ptr %109, align 8, !tbaa !132
  %111 = icmp ne ptr %110, null
  br i1 %111, label %112, label %116

112:                                              ; preds = %107
  %113 = load ptr, ptr %2, align 8, !tbaa !37
  %114 = getelementptr inbounds nuw %struct.hwloc_obj, ptr %113, i32 0, i32 20
  %115 = load ptr, ptr %114, align 8, !tbaa !132
  store ptr %115, ptr %4, align 8, !tbaa !37
  store i32 1, ptr %3, align 4, !tbaa !33
  br label %8

116:                                              ; preds = %107, %104
  call void @llvm.lifetime.end.p0(i64 8, ptr %4) #14
  call void @llvm.lifetime.end.p0(i64 4, ptr %3) #14
  ret void
}