; Function Attrs: nounwind uwtable
define internal fastcc void @fixup_sets(ptr noundef readonly captures(none) %0) unnamed_addr #5 {
  %2 = getelementptr inbounds nuw i8, ptr %0, i64 120
  %3 = load ptr, ptr %2, align 8, !tbaa !55
  %4 = getelementptr inbounds nuw i8, ptr %0, i64 144
  %5 = getelementptr inbounds nuw i8, ptr %0, i64 184
  %6 = getelementptr inbounds nuw i8, ptr %0, i64 200
  %7 = getelementptr inbounds nuw i8, ptr %0, i64 192
  %8 = getelementptr inbounds nuw i8, ptr %0, i64 208
  br label %9

9:                                                ; preds = %48, %1
  %.not33 = phi i1 [ true, %1 ], [ false, %48 ]
  %.0 = phi ptr [ %3, %1 ], [ %49, %48 ]
  %.not38 = icmp eq ptr %.0, null
  br i1 %.not38, label %._crit_edge, label %.lr.ph

.lr.ph:                                           ; preds = %9, %45
  %.139 = phi ptr [ %47, %45 ], [ %.0, %9 ]
  %10 = getelementptr inbounds nuw i8, ptr %.139, i64 184
  %11 = load ptr, ptr %10, align 8, !tbaa !45
  %12 = load ptr, ptr %5, align 8, !tbaa !45
  %13 = tail call i32 @hwloc_bitmap_and(ptr noundef %11, ptr noundef %11, ptr noundef %12) #34
  %14 = getelementptr inbounds nuw i8, ptr %.139, i64 200
  %15 = load ptr, ptr %14, align 8, !tbaa !83
  %16 = load ptr, ptr %6, align 8, !tbaa !83
  %17 = tail call i32 @hwloc_bitmap_and(ptr noundef %15, ptr noundef %15, ptr noundef %16) #34
  %18 = getelementptr inbounds nuw i8, ptr %.139, i64 192
  %19 = load ptr, ptr %18, align 8, !tbaa !54
  %.not35 = icmp eq ptr %19, null
  br i1 %.not35, label %23, label %20

20:                                               ; preds = %.lr.ph
  %21 = load ptr, ptr %7, align 8, !tbaa !54
  %22 = tail call i32 @hwloc_bitmap_and(ptr noundef nonnull %19, ptr noundef nonnull %19, ptr noundef %21) #34
  br label %26

23:                                               ; preds = %.lr.ph
  %24 = load ptr, ptr %10, align 8, !tbaa !45
  %25 = tail call noalias ptr @hwloc_bitmap_dup(ptr noundef %24) #34
  store ptr %25, ptr %18, align 8, !tbaa !54
  br label %26

26:                                               ; preds = %23, %20
  %27 = getelementptr inbounds nuw i8, ptr %.139, i64 208
  %28 = load ptr, ptr %27, align 8, !tbaa !84
  %.not36 = icmp eq ptr %28, null
  br i1 %.not36, label %32, label %29

29:                                               ; preds = %26
  %30 = load ptr, ptr %8, align 8, !tbaa !84
  %31 = tail call i32 @hwloc_bitmap_and(ptr noundef nonnull %28, ptr noundef nonnull %28, ptr noundef %30) #34
  br label %35

32:                                               ; preds = %26
  %33 = load ptr, ptr %14, align 8, !tbaa !83
  %34 = tail call noalias ptr @hwloc_bitmap_dup(ptr noundef %33) #34
  store ptr %34, ptr %27, align 8, !tbaa !84
  br label %35

35:                                               ; preds = %32, %29
  %36 = load i32, ptr %.139, align 8, !tbaa !35
  %37 = tail call i32 @hwloc_obj_type_is_memory(i32 noundef %36) #34
  %.not37 = icmp eq i32 %37, 0
  br i1 %.not37, label %45, label %38

38:                                               ; preds = %35
  %39 = load ptr, ptr %10, align 8, !tbaa !45
  %40 = load ptr, ptr %5, align 8, !tbaa !45
  %41 = tail call i32 @hwloc_bitmap_copy(ptr noundef %39, ptr noundef %40) #34
  %42 = load ptr, ptr %18, align 8, !tbaa !54
  %43 = load ptr, ptr %7, align 8, !tbaa !54
  %44 = tail call i32 @hwloc_bitmap_copy(ptr noundef %42, ptr noundef %43) #34
  br label %45

45:                                               ; preds = %38, %35
  tail call fastcc void @fixup_sets(ptr noundef nonnull %.139)
  %46 = getelementptr inbounds nuw i8, ptr %.139, i64 88
  %47 = load ptr, ptr %46, align 8, !tbaa !56
  %.not = icmp eq ptr %47, null
  br i1 %.not, label %._crit_edge, label %.lr.ph, !llvm.loop !239

._crit_edge:                                      ; preds = %45, %9
  br i1 %.not33, label %48, label %50

48:                                               ; preds = %._crit_edge
  %49 = load ptr, ptr %4, align 8, !tbaa !57
  %.not34 = icmp eq ptr %49, null
  br i1 %.not34, label %50, label %9

50:                                               ; preds = %48, %._crit_edge
  ret void
}